; Function Attrs: mustprogress nounwind uwtable
define dso_local void @_ZN4llvm11MCAssembler11handleFixupERNS_10MCFragmentERKNS_7MCFixupEPKNS_15MCSubtargetInfoE(ptr dead_on_unwind noalias nocapture writable writeonly sret(%"class.std::tuple.188") align 8 %0, ptr noundef nonnull align 8 dereferenceable(372) %1, ptr noundef nonnull align 8 dereferenceable(30) %2, ptr noundef nonnull align 8 dereferenceable(24) %3, ptr noundef %4) local_unnamed_addr #0 align 2 {
  %6 = alloca %"class.llvm::MCValue", align 8
  %7 = alloca i64, align 8
  %8 = alloca i8, align 1
  call void @llvm.memset.p0.i64(ptr noundef nonnull align 8 dereferenceable(28) %6, i8 0, i64 28, i1 false)
  %9 = call noundef zeroext i1 @_ZNK4llvm11MCAssembler13evaluateFixupERKNS_7MCFixupEPKNS_10MCFragmentERNS_7MCValueEPKNS_15MCSubtargetInfoERmRb(ptr noundef nonnull align 8 dereferenceable(372) %1, ptr noundef nonnull align 8 dereferenceable(24) %3, ptr noundef nonnull %2, ptr noundef nonnull align 8 dereferenceable(28) %6, ptr noundef %4, ptr noundef nonnull align 8 dereferenceable(8) %7, ptr noundef nonnull align 1 dereferenceable(1) %8)
  br i1 %9, label %16, label %10

10:                                               ; preds = %5
  %11 = getelementptr inbounds nuw i8, ptr %1, i64 24
  %12 = load ptr, ptr %11, align 8
  %13 = load ptr, ptr %12, align 8
  %14 = getelementptr inbounds i8, ptr %13, i64 32
  %15 = load ptr, ptr %14, align 8
  call void %15(ptr noundef nonnull align 8 dereferenceable(104) %12, ptr noundef nonnull align 8 dereferenceable(372) %1, ptr noundef nonnull %2, ptr noundef nonnull align 8 dereferenceable(24) %3, ptr noundef nonnull byval(%"class.llvm::MCValue") align 8 %6, ptr noundef nonnull align 8 dereferenceable(8) %7) #11
  br label %16

16:                                               ; preds = %10, %5
  %17 = zext i1 %9 to i8
  call void @llvm.experimental.noalias.scope.decl(metadata !84)
  store i8 %17, ptr %0, align 8, !alias.scope !84
  %18 = getelementptr inbounds i8, ptr %0, i64 8
  %19 = load i64, ptr %7, align 8, !noalias !84
  store i64 %19, ptr %18, align 8, !alias.scope !84
  %20 = getelementptr inbounds i8, ptr %0, i64 16
  call void @llvm.memcpy.p0.p0.i64(ptr noundef nonnull align 8 dereferenceable(32) %20, ptr noundef nonnull align 8 dereferenceable(32) %6, i64 32, i1 false)
  ret void
}